target datalayout = "e-m:e-p270:32:32-p271:32:32-p272:64:64-i64:64-i128:128-f80:128-n8:16:32:64-S128"
target triple = "x86_64-unknown-linux-gnu"

%"class.rocksdb::PessimisticTransaction" = type <{ %"class.rocksdb::TransactionBaseImpl", i8, i8, [6 x i8], ptr, ptr, i64, i64, i64, i64, %"class.rocksdb::autovector", i32, [4 x i8], ptr, %"class.std::mutex", i64, i8, [7 x i8], i64, i8, [7 x i8] }>
%"class.rocksdb::TransactionBaseImpl" = type { %"class.rocksdb::Transaction", ptr, ptr, %"struct.rocksdb::WriteOptions", ptr, ptr, i64, %"class.std::shared_ptr", i64, i64, i64, %"class.rocksdb::WriteBatchWithIndex", %"class.std::unique_ptr.6", %"class.std::unique_ptr.14", %"class.rocksdb::WriteBatch", i8, i8, %"class.std::shared_ptr.40" }
%"class.rocksdb::Transaction" = type { ptr, i64, %"class.std::__cxx11::basic_string", %"struct.std::atomic.3", i64 }
%"class.std::__cxx11::basic_string" = type { %"struct.std::__cxx11::basic_string<char>::_Alloc_hider", i64, %union.anon }
%"struct.std::__cxx11::basic_string<char>::_Alloc_hider" = type { ptr }
%union.anon = type { i64, [8 x i8] }
%"struct.std::atomic.3" = type { i32 }
%"struct.rocksdb::WriteOptions" = type { i8, i8, i8, i8, i8, i8, i32, i64 }
%"class.std::shared_ptr" = type { %"class.std::__shared_ptr" }
%"class.std::__shared_ptr" = type { ptr, %"class.std::__shared_count" }
%"class.std::__shared_count" = type { ptr }
%"class.rocksdb::WriteBatchWithIndex" = type { %"class.rocksdb::WriteBatchBase", %"class.std::unique_ptr" }
%"class.rocksdb::WriteBatchBase" = type { ptr }
%"class.std::unique_ptr" = type { %"struct.std::__uniq_ptr_data" }
%"struct.std::__uniq_ptr_data" = type { %"class.std::__uniq_ptr_impl" }
%"class.std::__uniq_ptr_impl" = type { %"class.std::tuple" }
%"class.std::tuple" = type { %"struct.std::_Tuple_impl" }
%"struct.std::_Tuple_impl" = type { %"struct.std::_Head_base.5" }
%"struct.std::_Head_base.5" = type { ptr }
%"class.std::unique_ptr.6" = type { %"struct.std::__uniq_ptr_data.7" }
%"struct.std::__uniq_ptr_data.7" = type { %"class.std::__uniq_ptr_impl.8" }
%"class.std::__uniq_ptr_impl.8" = type { %"class.std::tuple.9" }
%"class.std::tuple.9" = type { %"struct.std::_Tuple_impl.10" }
%"struct.std::_Tuple_impl.10" = type { %"struct.std::_Head_base.13" }
%"struct.std::_Head_base.13" = type { ptr }
%"class.std::unique_ptr.14" = type { %"struct.std::__uniq_ptr_data.15" }
%"struct.std::__uniq_ptr_data.15" = type { %"class.std::__uniq_ptr_impl.16" }
%"class.std::__uniq_ptr_impl.16" = type { %"class.std::tuple.17" }
%"class.std::tuple.17" = type { %"struct.std::_Tuple_impl.18" }
%"struct.std::_Tuple_impl.18" = type { %"struct.std::_Head_base.21" }
%"struct.std::_Head_base.21" = type { ptr }
%"class.rocksdb::WriteBatch" = type { %"class.rocksdb::WriteBatchBase", %"class.std::unique_ptr.22", %"struct.rocksdb::SavePoint", i8, i8, i8, %"struct.std::atomic.30", i64, %"class.std::unique_ptr.32", i64, %"class.std::__cxx11::basic_string" }
%"class.std::unique_ptr.22" = type { %"struct.std::__uniq_ptr_data.23" }
%"struct.std::__uniq_ptr_data.23" = type { %"class.std::__uniq_ptr_impl.24" }
%"class.std::__uniq_ptr_impl.24" = type { %"class.std::tuple.25" }
%"class.std::tuple.25" = type { %"struct.std::_Tuple_impl.26" }
%"struct.std::_Tuple_impl.26" = type { %"struct.std::_Head_base.29" }
%"struct.std::_Head_base.29" = type { ptr }
%"struct.rocksdb::SavePoint" = type { i64, i32, i32 }
%"struct.std::atomic.30" = type { %"struct.std::__atomic_base.31" }
%"struct.std::__atomic_base.31" = type { i32 }
%"class.std::unique_ptr.32" = type { %"struct.std::__uniq_ptr_data.33" }
%"struct.std::__uniq_ptr_data.33" = type { %"class.std::__uniq_ptr_impl.34" }
%"class.std::__uniq_ptr_impl.34" = type { %"class.std::tuple.35" }
%"class.std::tuple.35" = type { %"struct.std::_Tuple_impl.36" }
%"struct.std::_Tuple_impl.36" = type { %"struct.std::_Head_base.39" }
%"struct.std::_Head_base.39" = type { ptr }
%"class.std::shared_ptr.40" = type { %"class.std::__shared_ptr.41" }
%"class.std::__shared_ptr.41" = type { ptr, %"class.std::__shared_count" }
%"class.rocksdb::autovector" = type { i64, [64 x i8], ptr, %"class.std::vector.43" }
%"class.std::vector.43" = type { %"struct.std::_Vector_base.44" }
%"struct.std::_Vector_base.44" = type { %"struct.std::_Vector_base<unsigned long, std::allocator<unsigned long>>::_Vector_impl" }
%"struct.std::_Vector_base<unsigned long, std::allocator<unsigned long>>::_Vector_impl" = type { %"struct.std::_Vector_base<unsigned long, std::allocator<unsigned long>>::_Vector_impl_data" }
%"struct.std::_Vector_base<unsigned long, std::allocator<unsigned long>>::_Vector_impl_data" = type { ptr, ptr, ptr }
%"class.std::mutex" = type { %"class.std::__mutex_base" }
%"class.std::__mutex_base" = type { %union.pthread_mutex_t }
%union.pthread_mutex_t = type { %struct.__pthread_mutex_s }
%struct.__pthread_mutex_s = type { i32, i32, i32, i32, i32, i16, i16, %struct.__pthread_internal_list }
%struct.__pthread_internal_list = type { ptr, ptr }

; Function Attrs: mustprogress uwtable
define noundef zeroext i1 @_ZNK7rocksdb22PessimisticTransaction9IsExpiredEv(ptr noundef nonnull align 8 dereferenceable(561) %this) #0 align 2 {
entry:
  %retval = alloca i1, align 1
  %this.addr = alloca ptr, align 8
  store ptr %this, ptr %this.addr, align 8
  %this1 = load ptr, ptr %this.addr, align 8
  %expiration_time_ = getelementptr inbounds %"class.rocksdb::PessimisticTransaction", ptr %this1, i32 0, i32 6
  %0 = load i64, ptr %expiration_time_, align 8
  %cmp = icmp ugt i64 %0, 0
  br i1 %cmp, label %if.then, label %if.end6

if.then:                                          ; preds = %entry
  %dbimpl_ = getelementptr inbounds %"class.rocksdb::TransactionBaseImpl", ptr %this1, i32 0, i32 2
  %1 = load ptr, ptr %dbimpl_, align 8
  %call = call noundef ptr @_ZNK7rocksdb6DBImpl14GetSystemClockEv(ptr noundef nonnull align 64 dereferenceable(6660) %1)
  %vtable = load ptr, ptr %call, align 8
  %vfn = getelementptr inbounds ptr, ptr %vtable, i64 19
  %2 = load ptr, ptr %vfn, align 8
  %call2 = call noundef i64 %2(ptr noundef nonnull align 8 dereferenceable(32) %call)
  %expiration_time_3 = getelementptr inbounds %"class.rocksdb::PessimisticTransaction", ptr %this1, i32 0, i32 6
  %3 = load i64, ptr %expiration_time_3, align 8
  %cmp4 = icmp uge i64 %call2, %3
  br i1 %cmp4, label %if.then5, label %if.end

if.then5:                                         ; preds = %if.then
  store i1 true, ptr %retval, align 1
  br label %return

if.end:                                           ; preds = %if.then
  br label %if.end6

if.end6:                                          ; preds = %if.end, %entry
  store i1 false, ptr %retval, align 1
  br label %return

return:                                           ; preds = %if.end6, %if.then5
  %4 = load i1, ptr %retval, align 1
  ret i1 %4
}