; Function Attrs: mustprogress uwtable
define noundef zeroext i1 @_ZNK7rocksdb22PessimisticTransaction9IsExpiredEv(ptr nocapture noundef nonnull readonly align 8 dereferenceable(561) %this) local_unnamed_addr #3 align 2 {
entry:
  %expiration_time_ = getelementptr inbounds i8, ptr %this, i64 344
  %0 = load i64, ptr %expiration_time_, align 8
  %cmp.not = icmp eq i64 %0, 0
  br i1 %cmp.not, label %if.end6, label %if.then

if.then:                                          ; preds = %entry
  %dbimpl_ = getelementptr inbounds i8, ptr %this, i64 72
  %1 = load ptr, ptr %dbimpl_, align 8
  %call = tail call noundef ptr @_ZNK7rocksdb6DBImpl14GetSystemClockEv(ptr noundef nonnull align 64 dereferenceable(6660) %1)
  %vtable = load ptr, ptr %call, align 8
  %vfn = getelementptr inbounds i8, ptr %vtable, i64 152
  %2 = load ptr, ptr %vfn, align 8
  %call2 = tail call noundef i64 %2(ptr noundef nonnull align 8 dereferenceable(32) %call)
  %3 = load i64, ptr %expiration_time_, align 8
  %cmp4.not = icmp ult i64 %call2, %3
  br i1 %cmp4.not, label %if.end6, label %return

if.end6:                                          ; preds = %if.then, %entry
  br label %return

return:                                           ; preds = %if.then, %if.end6
  %retval.0 = phi i1 [ false, %if.end6 ], [ true, %if.then ]
  ret i1 %retval.0
}